target datalayout = "e-m:e-p270:32:32-p271:32:32-p272:64:64-i64:64-i128:128-f80:128-n8:16:32:64-S128"
target triple = "x86_64-pc-linux-gnu"

; Function Attrs: mustprogress nounwind uwtable
define internal void @_ZL8XXH_freePv(ptr noundef %0) #4 {
  %2 = alloca ptr, align 8
  store ptr %0, ptr %2, align 8, !tbaa !4
  %3 = load ptr, ptr %2, align 8, !tbaa !4
  call void @free(ptr noundef %3) #22
  ret void
}

; Function Attrs: mustprogress nounwind uwtable
define internal void @_ZL15XXH_alignedFreePv(ptr noundef %0) #4 {
  %2 = alloca ptr, align 8
  %3 = alloca ptr, align 8
  %4 = alloca i8, align 1
  %5 = alloca ptr, align 8
  store ptr %0, ptr %2, align 8, !tbaa !4
  %6 = load ptr, ptr %2, align 8, !tbaa !4
  %7 = icmp ne ptr %6, null
  br i1 %7, label %8, label %20

8:                                                ; preds = %1
  call void @llvm.lifetime.start.p0(i64 8, ptr %3) #22
  %9 = load ptr, ptr %2, align 8, !tbaa !4
  store ptr %9, ptr %3, align 8, !tbaa !12
  call void @llvm.lifetime.start.p0(i64 1, ptr %4) #22
  %10 = load ptr, ptr %3, align 8, !tbaa !12
  %11 = getelementptr inbounds i8, ptr %10, i64 -1
  %12 = load i8, ptr %11, align 1, !tbaa !29
  store i8 %12, ptr %4, align 1, !tbaa !29
  call void @llvm.lifetime.start.p0(i64 8, ptr %5) #22
  %13 = load ptr, ptr %3, align 8, !tbaa !12
  %14 = load i8, ptr %4, align 1, !tbaa !29
  %15 = zext i8 %14 to i32
  %16 = sext i32 %15 to i64
  %17 = sub i64 0, %16
  %18 = getelementptr inbounds i8, ptr %13, i64 %17
  store ptr %18, ptr %5, align 8, !tbaa !12
  %19 = load ptr, ptr %5, align 8, !tbaa !12
  call void @_ZL8XXH_freePv(ptr noundef %19)
  call void @llvm.lifetime.end.p0(i64 8, ptr %5) #22
  call void @llvm.lifetime.end.p0(i64 1, ptr %4) #22
  call void @llvm.lifetime.end.p0(i64 8, ptr %3) #22
  br label %20

20:                                               ; preds = %8, %1
  ret void
}

; Function Attrs: mustprogress uwtable
define i32 @ROCKSDB_XXH3_freeState(ptr noundef %0) #3 {
  %2 = alloca ptr, align 8
  store ptr %0, ptr %2, align 8, !tbaa !40
  %3 = load ptr, ptr %2, align 8, !tbaa !40
  call void @_ZL15XXH_alignedFreePv(ptr noundef %3)
  ret i32 0
}