; Function Attrs: mustprogress nounwind willreturn memory(argmem: readwrite, inaccessiblemem: readwrite) uwtable
define noundef i32 @ROCKSDB_XXH3_freeState(ptr noundef %0) local_unnamed_addr #3 {
  %.not.i = icmp eq ptr %0, null
  br i1 %.not.i, label %_ZL15XXH_alignedFreePv.exit, label %2

2:                                                ; preds = %1
  %3 = getelementptr inbounds i8, ptr %0, i64 -1
  %4 = load i8, ptr %3, align 1, !tbaa !12
  %5 = zext i8 %4 to i64
  %6 = sub nsw i64 0, %5
  %7 = getelementptr inbounds i8, ptr %0, i64 %6
  tail call void @free(ptr noundef nonnull %7) #34
  br label %_ZL15XXH_alignedFreePv.exit

_ZL15XXH_alignedFreePv.exit:                      ; preds = %1, %2
  ret i32 0
}